	.file	"bounds.c"
# GNU C89 (Ubuntu 5.4.0-6ubuntu1~16.04.10) version 5.4.0 20160609 (x86_64-linux-gnu)
#	compiled by GNU C version 5.4.0 20160609, GMP version 6.1.0, MPFR version 3.1.4, MPC version 1.0.3
# GGC heuristics: --param ggc-min-expand=100 --param ggc-min-heapsize=131072
# options passed:  -nostdinc -I ./arch/x86/include
# -I arch/x86/include/generated -I include -I ./arch/x86/include/uapi
# -I arch/x86/include/generated/uapi -I ./include/uapi
# -I include/generated/uapi -imultiarch x86_64-linux-gnu -D __KERNEL__
# -D CONFIG_X86_X32_ABI -D CONFIG_AS_CFI=1 -D CONFIG_AS_CFI_SIGNAL_FRAME=1
# -D CONFIG_AS_CFI_SECTIONS=1 -D CONFIG_AS_FXSAVEQ=1 -D CONFIG_AS_AVX=1
# -D CONFIG_AS_AVX2=1 -D CONFIG_AS_AVX512=1 -D CONFIG_AS_SHA1_NI=1
# -D CONFIG_AS_SHA256_NI=1 -D RETPOLINE -D CC_USING_FENTRY
# -D CC_HAVE_ASM_GOTO -D KBUILD_STR(s)=#s
# -D KBUILD_BASENAME=KBUILD_STR(bounds)
# -D KBUILD_MODNAME=KBUILD_STR(bounds)
# -isystem /usr/lib/gcc/x86_64-linux-gnu/5/include
# -include ./include/linux/kconfig.h -MD kernel/.bounds.s.d kernel/bounds.c
# -m64 -mpreferred-stack-boundary=3 -mtune=generic -mno-red-zone
# -mcmodel=kernel -maccumulate-outgoing-args -mno-sse -mno-mmx -mno-sse2
# -mno-3dnow -mno-avx -mindirect-branch=thunk-extern
# -mindirect-branch-register -mfentry -march=x86-64
# -auxbase-strip kernel/bounds.s -g -O2 -Wall -Wundef -Wstrict-prototypes
# -Wno-trigraphs -Werror=implicit-function-declaration -Wno-format-security
# -Wframe-larger-than=2048 -Wno-sign-compare -Wframe-larger-than=1024
# -Wno-unused-but-set-variable -Wdeclaration-after-statement
# -Wno-pointer-sign -std=gnu90 -p -fno-strict-aliasing -fno-common
# -fno-delete-null-pointer-checks -funit-at-a-time
# -fno-asynchronous-unwind-tables -fstack-protector-strong
# -fno-omit-frame-pointer -fno-optimize-sibling-calls -fno-strict-overflow
# -fconserve-stack -fverbose-asm -fstack-protector-strong
# options enabled:  -faggressive-loop-optimizations -falign-labels
# -fauto-inc-dec -fbranch-count-reg -fcaller-saves
# -fchkp-check-incomplete-type -fchkp-check-read -fchkp-check-write
# -fchkp-instrument-calls -fchkp-narrow-bounds -fchkp-optimize
# -fchkp-store-bounds -fchkp-use-static-bounds
# -fchkp-use-static-const-bounds -fchkp-use-wrappers
# -fcombine-stack-adjustments -fcompare-elim -fcprop-registers
# -fcrossjumping -fcse-follow-jumps -fdefer-pop -fdevirtualize
# -fdevirtualize-speculatively -fdwarf2-cfi-asm -fearly-inlining
# -feliminate-unused-debug-types -fexpensive-optimizations
# -fforward-propagate -ffunction-cse -fgcse -fgcse-lm -fgnu-runtime
# -fgnu-unique -fguess-branch-probability -fhoist-adjacent-loads -fident
# -fif-conversion -fif-conversion2 -findirect-inlining -finline
# -finline-atomics -finline-functions-called-once -finline-small-functions
# -fipa-cp -fipa-cp-alignment -fipa-icf -fipa-icf-functions
# -fipa-icf-variables -fipa-profile -fipa-pure-const -fipa-reference
# -fipa-sra -fira-hoist-pressure -fira-share-save-slots
# -fira-share-spill-slots -fisolate-erroneous-paths-dereference -fivopts
# -fkeep-static-consts -fleading-underscore -flifetime-dse -flra-remat
# -flto-odr-type-merging -fmath-errno -fmerge-constants
# -fmerge-debug-strings -fmove-loop-invariants -foptimize-strlen
# -fpartial-inlining -fpeephole -fpeephole2 -fprefetch-loop-arrays
# -fprofile -free -freg-struct-return -freorder-blocks
# -freorder-blocks-and-partition -freorder-functions -frerun-cse-after-loop
# -fsched-critical-path-heuristic -fsched-dep-count-heuristic
# -fsched-group-heuristic -fsched-interblock -fsched-last-insn-heuristic
# -fsched-rank-heuristic -fsched-spec -fsched-spec-insn-heuristic
# -fsched-stalled-insns-dep -fschedule-fusion -fschedule-insns2
# -fsemantic-interposition -fshow-column -fshrink-wrap -fsigned-zeros
# -fsplit-ivs-in-unroller -fsplit-wide-types -fssa-phiopt
# -fstack-protector-strong -fstdarg-opt -fstrict-volatile-bitfields
# -fsync-libcalls -fthread-jumps -ftoplevel-reorder -ftrapping-math
# -ftree-bit-ccp -ftree-builtin-call-dce -ftree-ccp -ftree-ch
# -ftree-coalesce-vars -ftree-copy-prop -ftree-copyrename -ftree-cselim
# -ftree-dce -ftree-dominator-opts -ftree-dse -ftree-forwprop -ftree-fre
# -ftree-loop-if-convert -ftree-loop-im -ftree-loop-ivcanon
# -ftree-loop-optimize -ftree-parallelize-loops= -ftree-phiprop -ftree-pre
# -ftree-pta -ftree-reassoc -ftree-scev-cprop -ftree-sink -ftree-slsr
# -ftree-sra -ftree-switch-conversion -ftree-tail-merge -ftree-ter
# -ftree-vrp -funit-at-a-time -fvar-tracking -fvar-tracking-assignments
# -fverbose-asm -fzero-initialized-in-bss -m128bit-long-double -m64 -m80387
# -maccumulate-outgoing-args -malign-stringops
# -mavx256-split-unaligned-load -mavx256-split-unaligned-store
# -mfancy-math-387 -mfentry -mfp-ret-in-387 -mfxsr -mglibc -mieee-fp
# -mindirect-branch-register -mlong-double-80 -mno-red-zone -mno-sse4
# -mpush-args -mtls-direct-seg-refs -mvzeroupper

	.text
.Ltext0:
	.cfi_sections	.debug_frame
	.section	.text.unlikely,"ax",@progbits
.LCOLDB0:
	.text
.LHOTB0:
	.p2align 4,,15
	.section	.text.unlikely
.Ltext_cold0:
	.text
	.globl	foo
	.type	foo, @function
foo:
.LFB661:
	.file 1 "kernel/bounds.c"
	.loc 1 17 0
	.cfi_startproc
1:	call	__fentry__
	pushq	%rbp	#
	.cfi_def_cfa_offset 16
	.cfi_offset 6, -16
	movq	%rsp, %rbp	#,
	.cfi_def_cfa_register 6
	.loc 1 19 0
#APP
# 19 "kernel/bounds.c" 1
	
->NR_PAGEFLAGS $25 __NR_PAGEFLAGS	#
# 0 "" 2
	.loc 1 20 0
# 20 "kernel/bounds.c" 1
	
->MAX_NR_ZONES $4 __MAX_NR_ZONES	#
# 0 "" 2
	.loc 1 21 0
# 21 "kernel/bounds.c" 1
	
->NR_PCG_FLAGS $3 __NR_PCG_FLAGS	#
# 0 "" 2
	.loc 1 23 0
# 23 "kernel/bounds.c" 1
	
->NR_CPUS_BITS $9 ilog2(CONFIG_NR_CPUS)	#
# 0 "" 2
	.loc 1 25 0
# 25 "kernel/bounds.c" 1
	
->BLOATED_SPINLOCKS $0 sizeof(spinlock_t) > sizeof(int)	#
# 0 "" 2
	.loc 1 27 0
#NO_APP
	popq	%rbp	#
	.cfi_restore 6
	.cfi_def_cfa 7, 8
	ret
	.cfi_endproc
.LFE661:
	.size	foo, .-foo
	.section	.text.unlikely
.LCOLDE0:
	.text
.LHOTE0:
.Letext0:
	.section	.text.unlikely
.Letext_cold0:
	.file 2 "include/uapi/asm-generic/int-ll64.h"
	.file 3 "include/asm-generic/int-ll64.h"
	.file 4 "include/linux/types.h"
	.file 5 "include/linux/ioport.h"
	.file 6 "./arch/x86/include/asm/ptrace.h"
	.file 7 "./arch/x86/include/asm/desc_defs.h"
	.file 8 "./arch/x86/include/asm/pgtable_64_types.h"
	.file 9 "./arch/x86/include/asm/pgtable_types.h"
	.file 10 "./arch/x86/include/asm/paravirt_types.h"
	.file 11 "./arch/x86/include/asm/processor.h"
	.file 12 "include/linux/cpumask.h"
	.file 13 "./arch/x86/include/asm/spinlock_types.h"
	.file 14 "include/asm-generic/qspinlock_types.h"
	.file 15 "include/linux/page-flags.h"
	.file 16 "include/linux/mmzone.h"
	.file 17 "./arch/x86/include/asm/vm86.h"
	.file 18 "./arch/x86/include/asm/math_emu.h"
	.file 19 "include/linux/jump_label.h"
	.file 20 "./arch/x86/include/asm/jump_label.h"
	.file 21 "./arch/x86/include/asm/kaslr.h"
	.file 22 "./arch/x86/include/asm/page_types.h"
	.file 23 "include/linux/printk.h"
	.file 24 "include/linux/kernel.h"
	.file 25 "./arch/x86/include/asm/page_64.h"
	.file 26 "./arch/x86/include/asm/current.h"
	.file 27 "./arch/x86/include/asm/string_64.h"
	.file 28 "./arch/x86/include/asm/special_insns.h"
	.file 29 "./arch/x86/include/asm/thread_info.h"
	.file 30 "include/linux/page_cgroup.h"
	.section	.note.GNU-stack,"",@progbits
